target datalayout = "e-m:e-p270:32:32-p271:32:32-p272:64:64-i64:64-i128:128-f80:128-n8:16:32:64-S128"
target triple = "x86_64-unknown-linux-gnu"

%struct.guc_gt_system_info = type { [16 x [32 x i8]], [16 x i32], [16 x i32] }
%struct.iosys_map = type { %union.anon.12, i8 }
%union.anon.12 = type { ptr }

@engine_class_guc_class_map = internal unnamed_addr constant [6 x i8] c"\00\01\02\03\05\04", align 1

; Function Attrs: fn_ret_thunk_extern nounwind null_pointer_is_valid
define internal fastcc void @fill_engine_enable_masks(ptr nocapture noundef readonly %0, ptr nocapture noundef readonly %1) unnamed_addr #0 align 16 {
  %3 = getelementptr inbounds i8, ptr %0, i64 4956
  %4 = load i32, ptr %3, align 4
  %5 = and i32 %4, 1
  %6 = getelementptr inbounds i8, ptr %1, i64 8
  %7 = load i8, ptr %6, align 8, !range !6, !noundef !7
  %8 = icmp eq i8 %7, 0
  %9 = load ptr, ptr %1, align 8
  %10 = getelementptr i8, ptr %9, i64 512
  br i1 %8, label %12, label %11

11:                                               ; preds = %2
  tail call void asm sideeffect "movl $0,$1", "r,*m,~{memory},~{dirflag},~{fpsr},~{flags}"(i32 %5, ptr elementtype(i32) %10) #10, !srcloc !9
  br label %13

12:                                               ; preds = %2
  store volatile i32 %5, ptr %10, align 4
  br label %13

13:                                               ; preds = %12, %11
  %14 = load i32, ptr %3, align 4
  %15 = lshr i32 %14, 22
  %16 = and i32 %15, 15
  %17 = load i8, ptr %6, align 8, !range !6, !noundef !7
  %18 = icmp eq i8 %17, 0
  %19 = load ptr, ptr %1, align 8
  %20 = getelementptr i8, ptr %19, i64 528
  br i1 %18, label %22, label %21

21:                                               ; preds = %13
  tail call void asm sideeffect "movl $0,$1", "r,*m,~{memory},~{dirflag},~{fpsr},~{flags}"(i32 %16, ptr elementtype(i32) %20) #10, !srcloc !9
  br label %23

22:                                               ; preds = %13
  store volatile i32 %16, ptr %20, align 4
  br label %23

23:                                               ; preds = %22, %21
  %24 = load i32, ptr %3, align 4
  %25 = lshr i32 %24, 1
  %26 = and i32 %25, 511
  %27 = load i8, ptr %6, align 8, !range !6, !noundef !7
  %28 = icmp eq i8 %27, 0
  %29 = load ptr, ptr %1, align 8
  %30 = getelementptr i8, ptr %29, i64 524
  br i1 %28, label %32, label %31

31:                                               ; preds = %23
  tail call void asm sideeffect "movl $0,$1", "r,*m,~{memory},~{dirflag},~{fpsr},~{flags}"(i32 %26, ptr elementtype(i32) %30) #10, !srcloc !9
  br label %33

32:                                               ; preds = %23
  store volatile i32 %26, ptr %30, align 4
  br label %33

33:                                               ; preds = %32, %31
  %34 = load i32, ptr %3, align 4
  %35 = lshr i32 %34, 10
  %36 = and i32 %35, 255
  %37 = load i8, ptr %6, align 8, !range !6, !noundef !7
  %38 = icmp eq i8 %37, 0
  %39 = load ptr, ptr %1, align 8
  %40 = getelementptr i8, ptr %39, i64 516
  br i1 %38, label %42, label %41

41:                                               ; preds = %33
  tail call void asm sideeffect "movl $0,$1", "r,*m,~{memory},~{dirflag},~{fpsr},~{flags}"(i32 %36, ptr elementtype(i32) %40) #10, !srcloc !9
  br label %43

42:                                               ; preds = %33
  store volatile i32 %36, ptr %40, align 4
  br label %43

43:                                               ; preds = %42, %41
  %44 = load i32, ptr %3, align 4
  %45 = lshr i32 %44, 18
  %46 = and i32 %45, 15
  %47 = load i8, ptr %6, align 8, !range !6, !noundef !7
  %48 = icmp eq i8 %47, 0
  %49 = load ptr, ptr %1, align 8
  %50 = getelementptr i8, ptr %49, i64 520
  br i1 %48, label %52, label %51

51:                                               ; preds = %43
  tail call void asm sideeffect "movl $0,$1", "r,*m,~{memory},~{dirflag},~{fpsr},~{flags}"(i32 %46, ptr elementtype(i32) %50) #10, !srcloc !9
  br label %53

52:                                               ; preds = %43
  store volatile i32 %46, ptr %50, align 4
  br label %53

53:                                               ; preds = %52, %51
  %54 = getelementptr i8, ptr %0, i64 4248
  %55 = load ptr, ptr %54, align 8
  %56 = icmp eq ptr %55, null
  br i1 %56, label %69, label %57

57:                                               ; preds = %53
  %58 = getelementptr inbounds i8, ptr %55, i64 57
  %59 = load i8, ptr %58, align 1
  %60 = zext nneg i8 %59 to i64
  %61 = shl nuw i64 1, %60
  %62 = trunc i64 %61 to i32
  %63 = load i8, ptr %6, align 8, !range !6, !noundef !7
  %64 = icmp eq i8 %63, 0
  %65 = load ptr, ptr %1, align 8
  %66 = getelementptr i8, ptr %65, i64 532
  br i1 %64, label %68, label %67

67:                                               ; preds = %57
  tail call void asm sideeffect "movl $0,$1", "r,*m,~{memory},~{dirflag},~{fpsr},~{flags}"(i32 %62, ptr elementtype(i32) %66) #10, !srcloc !9
  br label %69

68:                                               ; preds = %57
  store volatile i32 %62, ptr %66, align 4
  br label %69

69:                                               ; preds = %68, %67, %53
  ret void
}

; Function Attrs: fn_ret_thunk_extern nounwind null_pointer_is_valid
define internal fastcc i32 @guc_prep_golden_context(ptr noundef %0) unnamed_addr #0 align 16 {
  %2 = alloca %struct.guc_gt_system_info, align 1
  %3 = alloca %struct.iosys_map, align 8
  %4 = getelementptr i8, ptr %0, i64 -632
  call void @llvm.lifetime.start.p0(i64 640, ptr nonnull %2) #10
  call void @llvm.memset.p0.i64(ptr noundef nonnull align 1 dereferenceable(640) %2, i8 0, i64 640, i1 false), !annotation !10
  call void @llvm.lifetime.start.p0(i64 16, ptr nonnull %3) #10
  call void @llvm.memset.p0.i64(ptr noundef nonnull align 8 dereferenceable(16) %3, i8 0, i64 16, i1 false), !annotation !10
  %5 = getelementptr inbounds i8, ptr %0, i64 1296
  %6 = load ptr, ptr %5, align 8
  %7 = icmp eq ptr %6, null
  br i1 %7, label %26, label %8

8:                                                ; preds = %1
  %9 = getelementptr inbounds i8, ptr %0, i64 1312
  %10 = load i32, ptr %9, align 8
  %11 = add i32 %10, 25787
  %12 = and i32 %11, -4096
  %13 = getelementptr inbounds i8, ptr %0, i64 1288
  %14 = load ptr, ptr %13, align 8
  %15 = getelementptr inbounds i8, ptr %14, i64 8
  %16 = load i64, ptr %15, align 8
  %17 = getelementptr inbounds i8, ptr %14, i64 248
  %18 = load i32, ptr %17, align 8
  %19 = trunc i64 %16 to i32
  %20 = add i32 %12, %19
  %21 = add i32 %20, %18
  %22 = getelementptr inbounds i8, ptr %0, i64 1304
  %23 = load i64, ptr %22, align 8
  %24 = getelementptr i8, ptr %6, i64 4668
  store ptr %24, ptr %3, align 8
  %25 = getelementptr inbounds i8, ptr %3, i64 8
  store i64 %23, ptr %25, align 8
  br label %28

26:                                               ; preds = %1
  call void @llvm.memset.p0.i64(ptr noundef nonnull align 1 dereferenceable(640) %2, i8 0, i64 640, i1 false)
  store ptr %2, ptr %3, align 8
  %27 = getelementptr inbounds i8, ptr %3, i64 8
  store i8 0, ptr %27, align 8
  call fastcc void @fill_engine_enable_masks(ptr noundef %4, ptr noundef nonnull %3)
  br label %28

28:                                               ; preds = %26, %8
  %29 = phi i32 [ 0, %26 ], [ %21, %8 ]
  %30 = getelementptr inbounds i8, ptr %3, i64 8
  %31 = load i8, ptr %30, align 8, !range !6, !noundef !7
  %32 = icmp eq i8 %31, 0
  %33 = load ptr, ptr %3, align 8
  %34 = getelementptr i8, ptr %33, i64 512
  %35 = getelementptr i8, ptr %33, i64 512
  %36 = getelementptr inbounds i8, ptr %0, i64 1304
  br label %37

37:                                               ; preds = %95, %28
  %38 = phi i64 [ 0, %28 ], [ %98, %95 ]
  %39 = phi i32 [ %29, %28 ], [ %97, %95 ]
  %40 = phi i32 [ 0, %28 ], [ %96, %95 ]
  %41 = getelementptr [6 x i8], ptr @engine_class_guc_class_map, i64 0, i64 %38
  %42 = load i8, ptr %41, align 1
  %43 = zext i8 %42 to i64
  %44 = shl nuw nsw i64 %43, 2
  br i1 %32, label %48, label %45

45:                                               ; preds = %37
  %46 = getelementptr i8, ptr %34, i64 %44
  %47 = call i32 asm sideeffect "movl $1,$0", "=r,*m,~{memory},~{dirflag},~{fpsr},~{flags}"(ptr elementtype(i32) %46) #10, !srcloc !8
  br label %51

48:                                               ; preds = %37
  %49 = getelementptr i8, ptr %35, i64 %44
  %50 = load volatile i32, ptr %49, align 4
  br label %51

51:                                               ; preds = %48, %45
  %52 = phi i32 [ %47, %45 ], [ %50, %48 ]
  %53 = icmp eq i32 %52, 0
  br i1 %53, label %95, label %54

54:                                               ; preds = %51
  %55 = trunc i64 %38 to i8
  %56 = call i32 @intel_engine_context_size(ptr noundef %4, i8 noundef zeroext %55) #10
  %57 = add i32 %56, 4095
  %58 = and i32 %57, -4096
  %59 = add i32 %58, %40
  %60 = load ptr, ptr %5, align 8
  %61 = icmp eq ptr %60, null
  br i1 %61, label %95, label %62

62:                                               ; preds = %54
  %63 = load ptr, ptr %4, align 8
  %64 = getelementptr inbounds i8, ptr %63, i64 7176
  %65 = load i8, ptr %64, align 8
  %66 = zext i8 %65 to i32
  %67 = shl nuw nsw i32 %66, 8
  %68 = getelementptr inbounds i8, ptr %63, i64 7177
  %69 = load i8, ptr %68, align 1
  %70 = zext i8 %69 to i32
  %71 = or disjoint i32 %67, %70
  %72 = icmp ugt i32 %71, 3121
  %73 = select i1 %72, i32 -4480, i32 -4416
  %74 = add i32 %73, %56
  %75 = load i8, ptr %36, align 8, !range !6, !noundef !7
  %76 = icmp eq i8 %75, 0
  %77 = zext i8 %42 to i64
  %78 = shl nuw nsw i64 %77, 2
  %79 = getelementptr i8, ptr %60, i64 %78
  %80 = getelementptr i8, ptr %79, i64 4180
  br i1 %76, label %82, label %81

81:                                               ; preds = %62
  call void asm sideeffect "movl $0,$1", "r,*m,~{memory},~{dirflag},~{fpsr},~{flags}"(i32 %74, ptr elementtype(i32) %80) #10, !srcloc !9
  br label %83

82:                                               ; preds = %62
  store volatile i32 %74, ptr %80, align 4
  br label %83

83:                                               ; preds = %82, %81
  %84 = load i8, ptr %36, align 8, !range !6, !noundef !7
  %85 = icmp eq i8 %84, 0
  %86 = load ptr, ptr %5, align 8
  %87 = zext i8 %42 to i64
  %88 = shl nuw nsw i64 %87, 2
  %89 = getelementptr i8, ptr %86, i64 %88
  %90 = getelementptr i8, ptr %89, i64 4116
  br i1 %85, label %92, label %91

91:                                               ; preds = %83
  call void asm sideeffect "movl $0,$1", "r,*m,~{memory},~{dirflag},~{fpsr},~{flags}"(i32 %39, ptr elementtype(i32) %90) #10, !srcloc !9
  br label %93

92:                                               ; preds = %83
  store volatile i32 %39, ptr %90, align 4
  br label %93

93:                                               ; preds = %92, %91
  %94 = add i32 %58, %39
  br label %95

95:                                               ; preds = %93, %54, %51
  %96 = phi i32 [ %59, %54 ], [ %59, %93 ], [ %40, %51 ]
  %97 = phi i32 [ %39, %54 ], [ %94, %93 ], [ %39, %51 ]
  %98 = add nuw nsw i64 %38, 1
  %99 = icmp eq i64 %98, 6
  br i1 %99, label %100, label %37, !llvm.loop !24

100:                                              ; preds = %95
  call void @llvm.lifetime.end.p0(i64 16, ptr nonnull %3) #10
  call void @llvm.lifetime.end.p0(i64 640, ptr nonnull %2) #10
  ret i32 %96
}