; Function Attrs: fn_ret_thunk_extern nounwind null_pointer_is_valid
define internal fastcc i32 @guc_prep_golden_context(ptr noundef %0) unnamed_addr #0 align 16 {
  %2 = alloca %struct.guc_gt_system_info, align 1
  %3 = getelementptr i8, ptr %0, i64 -632
  call void @llvm.lifetime.start.p0(i64 640, ptr nonnull %2) #10
  call void @llvm.memset.p0.i64(ptr noundef nonnull align 1 dereferenceable(640) %2, i8 0, i64 640, i1 false), !annotation !10
  %4 = getelementptr inbounds i8, ptr %0, i64 1296
  %5 = load ptr, ptr %4, align 8
  %6 = icmp eq ptr %5, null
  br i1 %6, label %7, label %fill_engine_enable_masks.exit

7:                                                ; preds = %1
  %8 = getelementptr i8, ptr %0, i64 4324
  %9 = load i32, ptr %8, align 4
  %10 = and i32 %9, 1
  %11 = getelementptr inbounds i8, ptr %2, i64 512
  store volatile i32 %10, ptr %11, align 4
  %12 = lshr i32 %9, 22
  %13 = and i32 %12, 15
  %14 = getelementptr inbounds i8, ptr %2, i64 528
  store volatile i32 %13, ptr %14, align 4
  %15 = lshr i32 %9, 1
  %16 = and i32 %15, 511
  %17 = getelementptr inbounds i8, ptr %2, i64 524
  store volatile i32 %16, ptr %17, align 4
  %18 = lshr i32 %9, 10
  %19 = and i32 %18, 255
  %20 = getelementptr inbounds i8, ptr %2, i64 516
  store volatile i32 %19, ptr %20, align 4
  %21 = lshr i32 %9, 18
  %22 = and i32 %21, 15
  %23 = getelementptr inbounds i8, ptr %2, i64 520
  store volatile i32 %22, ptr %23, align 4
  %24 = getelementptr i8, ptr %0, i64 3616
  %25 = load ptr, ptr %24, align 8
  %26 = icmp eq ptr %25, null
  br i1 %26, label %fill_engine_enable_masks.exit.thread, label %27

27:                                               ; preds = %7
  %28 = getelementptr inbounds i8, ptr %25, i64 57
  %29 = load i8, ptr %28, align 1
  %30 = zext nneg i8 %29 to i64
  %31 = shl nuw i64 1, %30
  %32 = trunc i64 %31 to i32
  %33 = getelementptr inbounds i8, ptr %2, i64 532
  store volatile i32 %32, ptr %33, align 4
  br label %fill_engine_enable_masks.exit.thread

fill_engine_enable_masks.exit.thread:             ; preds = %7, %27
  %34 = getelementptr inbounds i8, ptr %2, i64 512
  %35 = getelementptr inbounds i8, ptr %0, i64 1304
  br label %fill_engine_enable_masks.exit.split.us.preheader

fill_engine_enable_masks.exit:                    ; preds = %1
  %36 = getelementptr inbounds i8, ptr %0, i64 1312
  %37 = load i32, ptr %36, align 8
  %38 = add i32 %37, 25787
  %39 = and i32 %38, -4096
  %40 = getelementptr inbounds i8, ptr %0, i64 1288
  %41 = load ptr, ptr %40, align 8
  %42 = getelementptr inbounds i8, ptr %41, i64 8
  %43 = load i64, ptr %42, align 8
  %44 = getelementptr inbounds i8, ptr %41, i64 248
  %45 = load i32, ptr %44, align 8
  %46 = trunc i64 %43 to i32
  %47 = add i32 %39, %46
  %48 = add i32 %47, %45
  %49 = getelementptr inbounds i8, ptr %0, i64 1304
  %50 = load i64, ptr %49, align 8
  %51 = and i64 %50, 255
  %52 = icmp eq i64 %51, 0
  %53 = getelementptr i8, ptr %5, i64 5180
  %54 = getelementptr inbounds i8, ptr %0, i64 1304
  br i1 %52, label %fill_engine_enable_masks.exit.split.us.preheader, label %fill_engine_enable_masks.exit.split

fill_engine_enable_masks.exit.split.us.preheader: ; preds = %fill_engine_enable_masks.exit.thread, %fill_engine_enable_masks.exit
  %55 = phi ptr [ %35, %fill_engine_enable_masks.exit.thread ], [ %54, %fill_engine_enable_masks.exit ]
  %56 = phi ptr [ %34, %fill_engine_enable_masks.exit.thread ], [ %53, %fill_engine_enable_masks.exit ]
  %57 = phi i32 [ 0, %fill_engine_enable_masks.exit.thread ], [ %48, %fill_engine_enable_masks.exit ]
  br label %fill_engine_enable_masks.exit.split.us

fill_engine_enable_masks.exit.split.us:           ; preds = %fill_engine_enable_masks.exit.split.us.preheader, %105
  %58 = phi i64 [ %108, %105 ], [ 0, %fill_engine_enable_masks.exit.split.us.preheader ]
  %59 = phi i32 [ %107, %105 ], [ %57, %fill_engine_enable_masks.exit.split.us.preheader ]
  %60 = phi i32 [ %106, %105 ], [ 0, %fill_engine_enable_masks.exit.split.us.preheader ]
  %61 = getelementptr [6 x i8], ptr @engine_class_guc_class_map, i64 0, i64 %58
  %62 = load i8, ptr %61, align 1
  %63 = zext i8 %62 to i64
  %64 = shl nuw nsw i64 %63, 2
  %65 = getelementptr i8, ptr %56, i64 %64
  %66 = load volatile i32, ptr %65, align 4
  %67 = icmp eq i32 %66, 0
  br i1 %67, label %105, label %68

68:                                               ; preds = %fill_engine_enable_masks.exit.split.us
  %69 = trunc i64 %58 to i8
  %70 = tail call i32 @intel_engine_context_size(ptr noundef %3, i8 noundef zeroext %69) #10
  %71 = add i32 %70, 4095
  %72 = and i32 %71, -4096
  %73 = add i32 %72, %60
  %74 = load ptr, ptr %4, align 8
  %75 = icmp eq ptr %74, null
  br i1 %75, label %105, label %76

76:                                               ; preds = %68
  %77 = load ptr, ptr %3, align 8
  %78 = getelementptr inbounds i8, ptr %77, i64 7176
  %79 = load i8, ptr %78, align 8
  %80 = zext i8 %79 to i32
  %81 = shl nuw nsw i32 %80, 8
  %82 = getelementptr inbounds i8, ptr %77, i64 7177
  %83 = load i8, ptr %82, align 1
  %84 = zext i8 %83 to i32
  %85 = or disjoint i32 %81, %84
  %86 = icmp ugt i32 %85, 3121
  %87 = select i1 %86, i32 -4480, i32 -4416
  %88 = add i32 %87, %70
  %89 = load i8, ptr %55, align 8, !range !6, !noundef !7
  %90 = icmp eq i8 %89, 0
  %91 = getelementptr i8, ptr %74, i64 %64
  %92 = getelementptr i8, ptr %91, i64 4180
  br i1 %90, label %94, label %93

93:                                               ; preds = %76
  tail call void asm sideeffect "movl $0,$1", "r,*m,~{memory},~{dirflag},~{fpsr},~{flags}"(i32 %88, ptr elementtype(i32) %92) #10, !srcloc !9
  br label %95

94:                                               ; preds = %76
  store volatile i32 %88, ptr %92, align 4
  br label %95

95:                                               ; preds = %94, %93
  %96 = load i8, ptr %55, align 8, !range !6, !noundef !7
  %97 = icmp eq i8 %96, 0
  %98 = load ptr, ptr %4, align 8
  %99 = getelementptr i8, ptr %98, i64 %64
  %100 = getelementptr i8, ptr %99, i64 4116
  br i1 %97, label %102, label %101

101:                                              ; preds = %95
  tail call void asm sideeffect "movl $0,$1", "r,*m,~{memory},~{dirflag},~{fpsr},~{flags}"(i32 %59, ptr elementtype(i32) %100) #10, !srcloc !9
  br label %103

102:                                              ; preds = %95
  store volatile i32 %59, ptr %100, align 4
  br label %103

103:                                              ; preds = %102, %101
  %104 = add i32 %72, %59
  br label %105

105:                                              ; preds = %103, %68, %fill_engine_enable_masks.exit.split.us
  %106 = phi i32 [ %73, %68 ], [ %73, %103 ], [ %60, %fill_engine_enable_masks.exit.split.us ]
  %107 = phi i32 [ %59, %68 ], [ %104, %103 ], [ %59, %fill_engine_enable_masks.exit.split.us ]
  %108 = add nuw nsw i64 %58, 1
  %109 = icmp eq i64 %108, 6
  br i1 %109, label %.split.us, label %fill_engine_enable_masks.exit.split.us, !llvm.loop !30

fill_engine_enable_masks.exit.split:              ; preds = %fill_engine_enable_masks.exit, %157
  %110 = phi i64 [ %160, %157 ], [ 0, %fill_engine_enable_masks.exit ]
  %111 = phi i32 [ %159, %157 ], [ %48, %fill_engine_enable_masks.exit ]
  %112 = phi i32 [ %158, %157 ], [ 0, %fill_engine_enable_masks.exit ]
  %113 = getelementptr [6 x i8], ptr @engine_class_guc_class_map, i64 0, i64 %110
  %114 = load i8, ptr %113, align 1
  %115 = zext i8 %114 to i64
  %116 = shl nuw nsw i64 %115, 2
  %117 = getelementptr i8, ptr %53, i64 %116
  %118 = tail call i32 asm sideeffect "movl $1,$0", "=r,*m,~{memory},~{dirflag},~{fpsr},~{flags}"(ptr elementtype(i32) %117) #10, !srcloc !8
  %119 = icmp eq i32 %118, 0
  br i1 %119, label %157, label %120

120:                                              ; preds = %fill_engine_enable_masks.exit.split
  %121 = trunc i64 %110 to i8
  %122 = tail call i32 @intel_engine_context_size(ptr noundef %3, i8 noundef zeroext %121) #10
  %123 = add i32 %122, 4095
  %124 = and i32 %123, -4096
  %125 = add i32 %124, %112
  %126 = load ptr, ptr %4, align 8
  %127 = icmp eq ptr %126, null
  br i1 %127, label %157, label %128

128:                                              ; preds = %120
  %129 = load ptr, ptr %3, align 8
  %130 = getelementptr inbounds i8, ptr %129, i64 7176
  %131 = load i8, ptr %130, align 8
  %132 = zext i8 %131 to i32
  %133 = shl nuw nsw i32 %132, 8
  %134 = getelementptr inbounds i8, ptr %129, i64 7177
  %135 = load i8, ptr %134, align 1
  %136 = zext i8 %135 to i32
  %137 = or disjoint i32 %133, %136
  %138 = icmp ugt i32 %137, 3121
  %139 = select i1 %138, i32 -4480, i32 -4416
  %140 = add i32 %139, %122
  %141 = load i8, ptr %54, align 8, !range !6, !noundef !7
  %142 = icmp eq i8 %141, 0
  %143 = getelementptr i8, ptr %126, i64 %116
  %144 = getelementptr i8, ptr %143, i64 4180
  br i1 %142, label %146, label %145

145:                                              ; preds = %128
  tail call void asm sideeffect "movl $0,$1", "r,*m,~{memory},~{dirflag},~{fpsr},~{flags}"(i32 %140, ptr elementtype(i32) %144) #10, !srcloc !9
  br label %147

146:                                              ; preds = %128
  store volatile i32 %140, ptr %144, align 4
  br label %147

147:                                              ; preds = %146, %145
  %148 = load i8, ptr %54, align 8, !range !6, !noundef !7
  %149 = icmp eq i8 %148, 0
  %150 = load ptr, ptr %4, align 8
  %151 = getelementptr i8, ptr %150, i64 %116
  %152 = getelementptr i8, ptr %151, i64 4116
  br i1 %149, label %154, label %153

153:                                              ; preds = %147
  tail call void asm sideeffect "movl $0,$1", "r,*m,~{memory},~{dirflag},~{fpsr},~{flags}"(i32 %111, ptr elementtype(i32) %152) #10, !srcloc !9
  br label %155

154:                                              ; preds = %147
  store volatile i32 %111, ptr %152, align 4
  br label %155

155:                                              ; preds = %154, %153
  %156 = add i32 %124, %111
  br label %157

157:                                              ; preds = %155, %120, %fill_engine_enable_masks.exit.split
  %158 = phi i32 [ %125, %120 ], [ %125, %155 ], [ %112, %fill_engine_enable_masks.exit.split ]
  %159 = phi i32 [ %111, %120 ], [ %156, %155 ], [ %111, %fill_engine_enable_masks.exit.split ]
  %160 = add nuw nsw i64 %110, 1
  %161 = icmp eq i64 %160, 6
  br i1 %161, label %.split.us, label %fill_engine_enable_masks.exit.split, !llvm.loop !30

.split.us:                                        ; preds = %157, %105
  %.us-phi = phi i32 [ %106, %105 ], [ %158, %157 ]
  call void @llvm.lifetime.end.p0(i64 640, ptr nonnull %2) #10
  ret i32 %.us-phi
}